target datalayout = "e-m:e-p270:32:32-p271:32:32-p272:64:64-i64:64-i128:128-f80:128-n8:16:32:64-S128"
target triple = "x86_64-pc-linux-gnu"

%"class.cv::Vec" = type { %"class.cv::Matx" }
%"class.cv::Matx" = type { [3 x float] }
%"class.cv::Vec.0" = type { %"class.cv::Matx.1" }
%"class.cv::Matx.1" = type { [3 x i8] }
%class.Vec3fTo.2 = type { %"class.cv::Vec" }

; Function Attrs: alwaysinline mustprogress nounwind uwtable
define internal noundef i32 @_ZL14_mm_cvtss_si32Dv4_f(<4 x float> noundef %0) #13 {
  %2 = alloca <4 x float>, align 16
  store <4 x float> %0, ptr %2, align 16, !tbaa !16
  %3 = load <4 x float>, ptr %2, align 16, !tbaa !16
  %4 = call i32 @llvm.x86.sse.cvtss2si(<4 x float> %3)
  ret i32 %4
}

; Function Attrs: alwaysinline mustprogress nounwind uwtable
define internal noundef <4 x float> @_ZL10_mm_set_ssf(float noundef %0) #13 {
  %2 = alloca float, align 4
  %3 = alloca <4 x float>, align 16
  store float %0, ptr %2, align 4, !tbaa !8
  %4 = load float, ptr %2, align 4, !tbaa !8
  %5 = insertelement <4 x float> poison, float %4, i32 0
  %6 = insertelement <4 x float> %5, float 0.000000e+00, i32 1
  %7 = insertelement <4 x float> %6, float 0.000000e+00, i32 2
  %8 = insertelement <4 x float> %7, float 0.000000e+00, i32 3
  store <4 x float> %8, ptr %3, align 16, !tbaa !16
  %9 = load <4 x float>, ptr %3, align 16, !tbaa !16
  ret <4 x float> %9
}

; Function Attrs: inlinehint mustprogress nounwind uwtable
define internal noundef zeroext i8 @_ZN2cvL13saturate_castIhEET_i(i32 noundef %0) #1 {
  %2 = alloca i32, align 4
  store i32 %0, ptr %2, align 4, !tbaa !12
  %3 = load i32, ptr %2, align 4, !tbaa !12
  %4 = icmp ule i32 %3, 255
  br i1 %4, label %5, label %7

5:                                                ; preds = %1
  %6 = load i32, ptr %2, align 4, !tbaa !12
  br label %11

7:                                                ; preds = %1
  %8 = load i32, ptr %2, align 4, !tbaa !12
  %9 = icmp sgt i32 %8, 0
  %10 = select i1 %9, i32 255, i32 0
  br label %11

11:                                               ; preds = %7, %5
  %12 = phi i32 [ %6, %5 ], [ %10, %7 ]
  %13 = trunc i32 %12 to i8
  ret i8 %13
}

; Function Attrs: inlinehint mustprogress uwtable
define internal noundef i32 @_ZL7cvRoundf(float noundef %0) #12 {
  %2 = alloca float, align 4
  %3 = alloca <4 x float>, align 16
  store float %0, ptr %2, align 4, !tbaa !8
  call void @llvm.lifetime.start.p0(i64 16, ptr %3) #16
  %4 = load float, ptr %2, align 4, !tbaa !8
  %5 = call noundef <4 x float> @_ZL10_mm_set_ssf(float noundef %4)
  store <4 x float> %5, ptr %3, align 16, !tbaa !16
  %6 = load <4 x float>, ptr %3, align 16, !tbaa !16
  %7 = call noundef i32 @_ZL14_mm_cvtss_si32Dv4_f(<4 x float> noundef %6)
  call void @llvm.lifetime.end.p0(i64 16, ptr %3) #16
  ret i32 %7
}

; Function Attrs: inlinehint mustprogress nounwind uwtable
define linkonce_odr hidden void @_ZN2cv4MatxIhLi3ELi1EEC2Ev(ptr noundef nonnull align 1 dereferenceable(3) %0) unnamed_addr #1 comdat align 2 {
  %2 = alloca ptr, align 8
  %3 = alloca i32, align 4
  store ptr %0, ptr %2, align 8, !tbaa !102
  %4 = load ptr, ptr %2, align 8
  call void @llvm.lifetime.start.p0(i64 4, ptr %3) #16
  store i32 0, ptr %3, align 4, !tbaa !12
  br label %5

5:                                                ; preds = %14, %1
  %6 = load i32, ptr %3, align 4, !tbaa !12
  %7 = icmp slt i32 %6, 3
  br i1 %7, label %9, label %8

8:                                                ; preds = %5
  call void @llvm.lifetime.end.p0(i64 4, ptr %3) #16
  br label %17

9:                                                ; preds = %5
  %10 = getelementptr inbounds nuw %"class.cv::Matx.1", ptr %4, i32 0, i32 0
  %11 = load i32, ptr %3, align 4, !tbaa !12
  %12 = sext i32 %11 to i64
  %13 = getelementptr inbounds [3 x i8], ptr %10, i64 0, i64 %12
  store i8 0, ptr %13, align 1, !tbaa !16
  br label %14

14:                                               ; preds = %9
  %15 = load i32, ptr %3, align 4, !tbaa !12
  %16 = add nsw i32 %15, 1
  store i32 %16, ptr %3, align 4, !tbaa !12
  br label %5, !llvm.loop !104

17:                                               ; preds = %8
  ret void
}

; Function Attrs: inlinehint mustprogress uwtable
define internal noundef zeroext i8 @_ZN2cvL13saturate_castIhEET_f(float noundef %0) #2 {
  %2 = alloca float, align 4
  %3 = alloca i32, align 4
  store float %0, ptr %2, align 4, !tbaa !8
  call void @llvm.lifetime.start.p0(i64 4, ptr %3) #16
  %4 = load float, ptr %2, align 4, !tbaa !8
  %5 = call noundef i32 @_ZL7cvRoundf(float noundef %4)
  store i32 %5, ptr %3, align 4, !tbaa !12
  %6 = load i32, ptr %3, align 4, !tbaa !12
  %7 = call noundef zeroext i8 @_ZN2cvL13saturate_castIhEET_i(i32 noundef %6)
  call void @llvm.lifetime.end.p0(i64 4, ptr %3) #16
  ret i8 %7
}

; Function Attrs: inlinehint mustprogress uwtable
define linkonce_odr hidden void @_ZN2cv3VecIhLi3EEC2Ev(ptr noundef nonnull align 1 dereferenceable(3) %0) unnamed_addr #2 comdat align 2 {
  %2 = alloca ptr, align 8
  store ptr %0, ptr %2, align 8, !tbaa !100
  %3 = load ptr, ptr %2, align 8
  call void @_ZN2cv4MatxIhLi3ELi1EEC2Ev(ptr noundef nonnull align 1 dereferenceable(3) %3)
  ret void
}

; Function Attrs: inlinehint mustprogress uwtable
define linkonce_odr hidden void @_ZNK2cv3VecIfLi3EEcvNS0_IT_Li3EEEIhEEv(ptr dead_on_unwind noalias writable sret(%"class.cv::Vec.0") align 1 %0, ptr noundef nonnull align 4 dereferenceable(12) %1) #2 comdat align 2 {
  %3 = alloca ptr, align 8
  %4 = alloca ptr, align 8
  %5 = alloca i32, align 4
  store ptr %0, ptr %3, align 8
  store ptr %1, ptr %4, align 8, !tbaa !10
  %6 = load ptr, ptr %4, align 8
  call void @_ZN2cv3VecIhLi3EEC2Ev(ptr noundef nonnull align 1 dereferenceable(3) %0)
  call void @llvm.lifetime.start.p0(i64 4, ptr %5) #16
  store i32 0, ptr %5, align 4, !tbaa !12
  br label %7

7:                                                ; preds = %22, %2
  %8 = load i32, ptr %5, align 4, !tbaa !12
  %9 = icmp slt i32 %8, 3
  br i1 %9, label %11, label %10

10:                                               ; preds = %7
  call void @llvm.lifetime.end.p0(i64 4, ptr %5) #16
  br label %25

11:                                               ; preds = %7
  %12 = getelementptr inbounds nuw %"class.cv::Matx", ptr %6, i32 0, i32 0
  %13 = load i32, ptr %5, align 4, !tbaa !12
  %14 = sext i32 %13 to i64
  %15 = getelementptr inbounds [3 x float], ptr %12, i64 0, i64 %14
  %16 = load float, ptr %15, align 4, !tbaa !8
  %17 = call noundef zeroext i8 @_ZN2cvL13saturate_castIhEET_f(float noundef %16)
  %18 = getelementptr inbounds nuw %"class.cv::Matx.1", ptr %0, i32 0, i32 0
  %19 = load i32, ptr %5, align 4, !tbaa !12
  %20 = sext i32 %19 to i64
  %21 = getelementptr inbounds [3 x i8], ptr %18, i64 0, i64 %20
  store i8 %17, ptr %21, align 1, !tbaa !16
  br label %22

22:                                               ; preds = %11
  %23 = load i32, ptr %5, align 4, !tbaa !12
  %24 = add nsw i32 %23, 1
  store i32 %24, ptr %5, align 4, !tbaa !12
  br label %7, !llvm.loop !17

25:                                               ; preds = %10
  ret void
}

; Function Attrs: mustprogress uwtable
define hidden void @_ZN7Vec3fToIN2cv3VecIhLi3EEEE7extractEv(ptr dead_on_unwind noalias writable sret(%"class.cv::Vec.0") align 1 %0, ptr noundef nonnull align 4 dereferenceable(12) %1) #0 align 2 {
  %3 = alloca ptr, align 8
  %4 = alloca ptr, align 8
  store ptr %0, ptr %3, align 8
  store ptr %1, ptr %4, align 8, !tbaa !14
  %5 = load ptr, ptr %4, align 8
  %6 = getelementptr inbounds nuw %class.Vec3fTo.2, ptr %5, i32 0, i32 0
  call void @_ZNK2cv3VecIfLi3EEcvNS0_IT_Li3EEEIhEEv(ptr dead_on_unwind writable sret(%"class.cv::Vec.0") align 1 %0, ptr noundef nonnull align 4 dereferenceable(12) %6)
  ret void
}