; Function Attrs: mustprogress nofree norecurse nosync nounwind memory(argmem: readwrite, inaccessiblemem: readwrite) uwtable
define hidden void @_ZN7Vec3fToIN2cv3VecIhLi3EEEE7extractEv(ptr dead_on_unwind noalias writable writeonly sret(%"class.cv::Vec.0") align 1 captures(none) initializes((0, 3)) %0, ptr noundef nonnull readonly align 4 captures(none) dereferenceable(12) %1) local_unnamed_addr #1 align 2 {
  tail call void @llvm.experimental.noalias.scope.decl(metadata !7)
  tail call void @llvm.memset.p0.i64(ptr noundef nonnull align 1 dereferenceable(3) %0, i8 0, i64 3, i1 false), !tbaa !10, !alias.scope !7
  br label %3

3:                                                ; preds = %3, %2
  %indvars.iv.i = phi i64 [ 0, %2 ], [ %indvars.iv.next.i, %3 ]
  %4 = getelementptr inbounds nuw [3 x float], ptr %1, i64 0, i64 %indvars.iv.i
  %5 = load float, ptr %4, align 4, !tbaa !3, !noalias !7
  %6 = insertelement <4 x float> poison, float %5, i64 0
  %7 = tail call noundef i32 @llvm.x86.sse.cvtss2si(<4 x float> %6)
  %8 = tail call i32 @llvm.smax.i32(i32 %7, i32 0)
  %9 = tail call i32 @llvm.umin.i32(i32 %8, i32 255)
  %10 = trunc nuw i32 %9 to i8
  %11 = getelementptr inbounds nuw [3 x i8], ptr %0, i64 0, i64 %indvars.iv.i
  store i8 %10, ptr %11, align 1, !tbaa !10, !alias.scope !7
  %indvars.iv.next.i = add nuw nsw i64 %indvars.iv.i, 1
  %exitcond.not.i = icmp eq i64 %indvars.iv.next.i, 3
  br i1 %exitcond.not.i, label %_ZNK2cv3VecIfLi3EEcvNS0_IT_Li3EEEIhEEv.exit, label %3, !llvm.loop !11

_ZNK2cv3VecIfLi3EEcvNS0_IT_Li3EEEIhEEv.exit:      ; preds = %3
  ret void
}